target datalayout = "e-m:e-p270:32:32-p271:32:32-p272:64:64-i64:64-i128:128-f80:128-n8:16:32:64-S128"
target triple = "x86_64-unknown-linux-gnu"

%class.rewriter_core = type { ptr, ptr, i8, i8, %class.ptr_vector, ptr, %class.svector.1, %class.ref_vector, %class.ptr_vector, ptr, %class.ref_vector.5, %class.obj_hashtable, ptr, i32, %class.svector.10 }
%class.svector.1 = type { %class.vector.2 }
%class.vector.2 = type { ptr }
%class.ref_vector = type { %class.ref_vector_core }
%class.ref_vector_core = type { %class.ref_manager_wrapper, %class.ptr_vector.3 }
%class.ref_manager_wrapper = type { ptr }
%class.ptr_vector.3 = type { %class.vector.4 }
%class.vector.4 = type { ptr }
%class.ptr_vector = type { %class.vector.0 }
%class.vector.0 = type { ptr }
%class.ref_vector.5 = type { %class.ref_vector_core.6 }
%class.ref_vector_core.6 = type { %class.ref_manager_wrapper.7, %class.ptr_vector.8 }
%class.ref_manager_wrapper.7 = type { ptr }
%class.ptr_vector.8 = type { %class.vector.9 }
%class.vector.9 = type { ptr }
%class.obj_hashtable = type { %class.core_hashtable.base, [4 x i8] }
%class.core_hashtable.base = type <{ ptr, i32, i32, i32 }>
%class.svector.10 = type { %class.vector.11 }
%class.vector.11 = type { ptr }
%class.symbol = type { ptr }
%class.app = type { %class.expr, ptr, i32, [0 x ptr] }
%class.expr = type { %class.ast }
%class.ast = type { i32, i24, i32, i32 }
%"struct.rewriter_core::frame" = type { ptr, i32, i32 }
%class.quantifier = type { %class.expr, i32, i32, ptr, ptr, i32, i32, i8, i8, %class.symbol, %class.symbol, i32, i32, [0 x i8] }

; Function Attrs: mustprogress nounwind uwtable
define linkonce_odr hidden noundef ptr @_ZNK10quantifier14get_decl_sortsEv(ptr noundef nonnull align 8 dereferenceable(80) %this) #5 comdat align 2 {
entry:
  %this.addr = alloca ptr, align 8
  store ptr %this, ptr %this.addr, align 8
  %this1 = load ptr, ptr %this.addr, align 8
  %m_patterns_decls = getelementptr inbounds %class.quantifier, ptr %this1, i32 0, i32 13
  %arraydecay = getelementptr inbounds [0 x i8], ptr %m_patterns_decls, i64 0, i64 0
  ret ptr %arraydecay
}

; Function Attrs: mustprogress uwtable
define linkonce_odr hidden noundef ptr @_ZNK10quantifier14get_decl_namesEv(ptr noundef nonnull align 8 dereferenceable(80) %this) #4 comdat align 2 {
entry:
  %this.addr = alloca ptr, align 8
  store ptr %this, ptr %this.addr, align 8
  %this1 = load ptr, ptr %this.addr, align 8
  %call = call noundef ptr @_ZNK10quantifier14get_decl_sortsEv(ptr noundef nonnull align 8 dereferenceable(80) %this1)
  %m_num_decls = getelementptr inbounds %class.quantifier, ptr %this1, i32 0, i32 2
  %0 = load i32, ptr %m_num_decls, align 4
  %idx.ext = zext i32 %0 to i64
  %add.ptr = getelementptr inbounds ptr, ptr %call, i64 %idx.ext
  ret ptr %add.ptr
}

; Function Attrs: mustprogress uwtable
define linkonce_odr hidden noundef ptr @_ZNK10quantifier15get_no_patternsEv(ptr noundef nonnull align 8 dereferenceable(80) %this) #4 comdat align 2 {
entry:
  %this.addr = alloca ptr, align 8
  store ptr %this, ptr %this.addr, align 8
  %this1 = load ptr, ptr %this.addr, align 8
  %call = call noundef ptr @_ZNK10quantifier14get_decl_namesEv(ptr noundef nonnull align 8 dereferenceable(80) %this1)
  %m_num_decls = getelementptr inbounds %class.quantifier, ptr %this1, i32 0, i32 2
  %0 = load i32, ptr %m_num_decls, align 4
  %idx.ext = zext i32 %0 to i64
  %add.ptr = getelementptr inbounds %class.symbol, ptr %call, i64 %idx.ext
  ret ptr %add.ptr
}

; Function Attrs: mustprogress uwtable
define linkonce_odr hidden noundef ptr @_ZNK10quantifier12get_patternsEv(ptr noundef nonnull align 8 dereferenceable(80) %this) #4 comdat align 2 {
entry:
  %this.addr = alloca ptr, align 8
  store ptr %this, ptr %this.addr, align 8
  %this1 = load ptr, ptr %this.addr, align 8
  %call = call noundef ptr @_ZNK10quantifier14get_decl_namesEv(ptr noundef nonnull align 8 dereferenceable(80) %this1)
  %m_num_decls = getelementptr inbounds %class.quantifier, ptr %this1, i32 0, i32 2
  %0 = load i32, ptr %m_num_decls, align 4
  %idx.ext = zext i32 %0 to i64
  %add.ptr = getelementptr inbounds %class.symbol, ptr %call, i64 %idx.ext
  ret ptr %add.ptr
}

; Function Attrs: mustprogress uwtable
define linkonce_odr hidden noundef ptr @_ZNK10quantifier14get_no_patternEj(ptr noundef nonnull align 8 dereferenceable(80) %this, i32 noundef %idx) #4 comdat align 2 {
entry:
  %this.addr = alloca ptr, align 8
  %idx.addr = alloca i32, align 4
  store ptr %this, ptr %this.addr, align 8
  store i32 %idx, ptr %idx.addr, align 4
  %this1 = load ptr, ptr %this.addr, align 8
  %call = call noundef ptr @_ZNK10quantifier15get_no_patternsEv(ptr noundef nonnull align 8 dereferenceable(80) %this1)
  %0 = load i32, ptr %idx.addr, align 4
  %idxprom = zext i32 %0 to i64
  %arrayidx = getelementptr inbounds ptr, ptr %call, i64 %idxprom
  %1 = load ptr, ptr %arrayidx, align 8
  ret ptr %1
}

; Function Attrs: mustprogress uwtable
define linkonce_odr hidden noundef ptr @_ZNK10quantifier11get_patternEj(ptr noundef nonnull align 8 dereferenceable(80) %this, i32 noundef %idx) #4 comdat align 2 {
entry:
  %this.addr = alloca ptr, align 8
  %idx.addr = alloca i32, align 4
  store ptr %this, ptr %this.addr, align 8
  store i32 %idx, ptr %idx.addr, align 4
  %this1 = load ptr, ptr %this.addr, align 8
  %call = call noundef ptr @_ZNK10quantifier12get_patternsEv(ptr noundef nonnull align 8 dereferenceable(80) %this1)
  %0 = load i32, ptr %idx.addr, align 4
  %idxprom = zext i32 %0 to i64
  %arrayidx = getelementptr inbounds ptr, ptr %call, i64 %idxprom
  %1 = load ptr, ptr %arrayidx, align 8
  ret ptr %1
}

; Function Attrs: mustprogress nounwind uwtable
define linkonce_odr hidden noundef ptr @_ZNK10quantifier8get_exprEv(ptr noundef nonnull align 8 dereferenceable(80) %this) #5 comdat align 2 {
entry:
  %this.addr = alloca ptr, align 8
  store ptr %this, ptr %this.addr, align 8
  %this1 = load ptr, ptr %this.addr, align 8
  %m_expr = getelementptr inbounds %class.quantifier, ptr %this1, i32 0, i32 3
  %0 = load ptr, ptr %m_expr, align 8
  ret ptr %0
}

; Function Attrs: mustprogress nounwind uwtable
define linkonce_odr hidden noundef i32 @_ZNK10quantifier19get_num_no_patternsEv(ptr noundef nonnull align 8 dereferenceable(80) %this) #5 comdat align 2 {
entry:
  %this.addr = alloca ptr, align 8
  store ptr %this, ptr %this.addr, align 8
  %this1 = load ptr, ptr %this.addr, align 8
  %m_num_no_patterns = getelementptr inbounds %class.quantifier, ptr %this1, i32 0, i32 12
  %0 = load i32, ptr %m_num_no_patterns, align 4
  ret i32 %0
}

; Function Attrs: mustprogress nounwind uwtable
define linkonce_odr hidden noundef i32 @_ZNK10quantifier16get_num_patternsEv(ptr noundef nonnull align 8 dereferenceable(80) %this) #5 comdat align 2 {
entry:
  %this.addr = alloca ptr, align 8
  store ptr %this, ptr %this.addr, align 8
  %this1 = load ptr, ptr %this.addr, align 8
  %m_num_patterns = getelementptr inbounds %class.quantifier, ptr %this1, i32 0, i32 11
  %0 = load i32, ptr %m_num_patterns, align 8
  ret i32 %0
}

; Function Attrs: mustprogress nounwind uwtable
define linkonce_odr hidden noundef nonnull align 8 dereferenceable(16) ptr @_ZNK6vectorIN13rewriter_core5frameELb0EjEixEj(ptr noundef nonnull align 8 dereferenceable(8) %this, i32 noundef %idx) #5 comdat align 2 {
entry:
  %this.addr = alloca ptr, align 8
  %idx.addr = alloca i32, align 4
  store ptr %this, ptr %this.addr, align 8
  store i32 %idx, ptr %idx.addr, align 4
  %this1 = load ptr, ptr %this.addr, align 8
  %m_data = getelementptr inbounds %class.vector.2, ptr %this1, i32 0, i32 0
  %0 = load ptr, ptr %m_data, align 8
  %1 = load i32, ptr %idx.addr, align 4
  %idxprom = zext i32 %1 to i64
  %arrayidx = getelementptr inbounds %"struct.rewriter_core::frame", ptr %0, i64 %idxprom
  ret ptr %arrayidx
}

; Function Attrs: mustprogress nounwind uwtable
define linkonce_odr hidden noundef i32 @_ZNK6vectorIN13rewriter_core5frameELb0EjE4sizeEv(ptr noundef nonnull align 8 dereferenceable(8) %this) #5 comdat align 2 {
entry:
  %retval = alloca i32, align 4
  %this.addr = alloca ptr, align 8
  store ptr %this, ptr %this.addr, align 8
  %this1 = load ptr, ptr %this.addr, align 8
  %m_data = getelementptr inbounds %class.vector.2, ptr %this1, i32 0, i32 0
  %0 = load ptr, ptr %m_data, align 8
  %cmp = icmp eq ptr %0, null
  br i1 %cmp, label %if.then, label %if.end

if.then:                                          ; preds = %entry
  store i32 0, ptr %retval, align 4
  br label %return

if.end:                                           ; preds = %entry
  %m_data2 = getelementptr inbounds %class.vector.2, ptr %this1, i32 0, i32 0
  %1 = load ptr, ptr %m_data2, align 8
  %arrayidx = getelementptr inbounds i32, ptr %1, i64 -1
  %2 = load i32, ptr %arrayidx, align 4
  store i32 %2, ptr %retval, align 4
  br label %return

return:                                           ; preds = %if.end, %if.then
  %3 = load i32, ptr %retval, align 4
  ret i32 %3
}

; Function Attrs: mustprogress uwtable
define linkonce_odr hidden noundef ptr @_ZNK10quantifier9get_childEj(ptr noundef nonnull align 8 dereferenceable(80) %this, i32 noundef %idx) #4 comdat align 2 {
entry:
  %retval = alloca ptr, align 8
  %this.addr = alloca ptr, align 8
  %idx.addr = alloca i32, align 4
  store ptr %this, ptr %this.addr, align 8
  store i32 %idx, ptr %idx.addr, align 4
  %this1 = load ptr, ptr %this.addr, align 8
  %0 = load i32, ptr %idx.addr, align 4
  %cmp = icmp eq i32 %0, 0
  br i1 %cmp, label %if.then, label %if.else

if.then:                                          ; preds = %entry
  %call = call noundef ptr @_ZNK10quantifier8get_exprEv(ptr noundef nonnull align 8 dereferenceable(80) %this1)
  store ptr %call, ptr %retval, align 8
  br label %return

if.else:                                          ; preds = %entry
  %1 = load i32, ptr %idx.addr, align 4
  %call2 = call noundef i32 @_ZNK10quantifier16get_num_patternsEv(ptr noundef nonnull align 8 dereferenceable(80) %this1)
  %cmp3 = icmp ule i32 %1, %call2
  br i1 %cmp3, label %if.then4, label %if.else6

if.then4:                                         ; preds = %if.else
  %2 = load i32, ptr %idx.addr, align 4
  %sub = sub i32 %2, 1
  %call5 = call noundef ptr @_ZNK10quantifier11get_patternEj(ptr noundef nonnull align 8 dereferenceable(80) %this1, i32 noundef %sub)
  store ptr %call5, ptr %retval, align 8
  br label %return

if.else6:                                         ; preds = %if.else
  %3 = load i32, ptr %idx.addr, align 4
  %call7 = call noundef i32 @_ZNK10quantifier16get_num_patternsEv(ptr noundef nonnull align 8 dereferenceable(80) %this1)
  %sub8 = sub i32 %3, %call7
  %sub9 = sub i32 %sub8, 1
  %call10 = call noundef ptr @_ZNK10quantifier14get_no_patternEj(ptr noundef nonnull align 8 dereferenceable(80) %this1, i32 noundef %sub9)
  store ptr %call10, ptr %retval, align 8
  br label %return

return:                                           ; preds = %if.else6, %if.then4, %if.then
  %4 = load ptr, ptr %retval, align 8
  ret ptr %4
}

; Function Attrs: mustprogress uwtable
define linkonce_odr hidden noundef i32 @_ZNK10quantifier16get_num_childrenEv(ptr noundef nonnull align 8 dereferenceable(80) %this) #4 comdat align 2 {
entry:
  %this.addr = alloca ptr, align 8
  store ptr %this, ptr %this.addr, align 8
  %this1 = load ptr, ptr %this.addr, align 8
  %call = call noundef i32 @_ZNK10quantifier16get_num_patternsEv(ptr noundef nonnull align 8 dereferenceable(80) %this1)
  %add = add i32 1, %call
  %call2 = call noundef i32 @_ZNK10quantifier19get_num_no_patternsEv(ptr noundef nonnull align 8 dereferenceable(80) %this1)
  %add3 = add i32 %add, %call2
  ret i32 %add3
}

; Function Attrs: mustprogress nounwind uwtable
define linkonce_odr hidden noundef ptr @_Z13to_quantifierP3ast(ptr noundef %n) #5 comdat {
entry:
  %n.addr = alloca ptr, align 8
  store ptr %n, ptr %n.addr, align 8
  %0 = load ptr, ptr %n.addr, align 8
  ret ptr %0
}

; Function Attrs: mustprogress nounwind uwtable
define linkonce_odr hidden noundef ptr @_ZNK3app7get_argEj(ptr noundef nonnull align 8 dereferenceable(32) %this, i32 noundef %idx) #5 comdat align 2 {
entry:
  %this.addr = alloca ptr, align 8
  %idx.addr = alloca i32, align 4
  store ptr %this, ptr %this.addr, align 8
  store i32 %idx, ptr %idx.addr, align 4
  %this1 = load ptr, ptr %this.addr, align 8
  %m_args = getelementptr inbounds %class.app, ptr %this1, i32 0, i32 3
  %0 = load i32, ptr %idx.addr, align 4
  %idxprom = zext i32 %0 to i64
  %arrayidx = getelementptr inbounds [0 x ptr], ptr %m_args, i64 0, i64 %idxprom
  %1 = load ptr, ptr %arrayidx, align 8
  ret ptr %1
}

; Function Attrs: mustprogress nounwind uwtable
define linkonce_odr hidden noundef i32 @_ZNK3app12get_num_argsEv(ptr noundef nonnull align 8 dereferenceable(32) %this) #5 comdat align 2 {
entry:
  %this.addr = alloca ptr, align 8
  store ptr %this, ptr %this.addr, align 8
  %this1 = load ptr, ptr %this.addr, align 8
  %m_num_args = getelementptr inbounds %class.app, ptr %this1, i32 0, i32 2
  %0 = load i32, ptr %m_num_args, align 8
  ret i32 %0
}

; Function Attrs: mustprogress nounwind uwtable
define linkonce_odr hidden noundef ptr @_Z6to_appP3ast(ptr noundef %n) #5 comdat {
entry:
  %n.addr = alloca ptr, align 8
  store ptr %n, ptr %n.addr, align 8
  %0 = load ptr, ptr %n.addr, align 8
  ret ptr %0
}

; Function Attrs: mustprogress nounwind uwtable
define linkonce_odr hidden noundef i32 @_ZNK3ast8get_kindEv(ptr noundef nonnull align 4 dereferenceable(16) %this) #5 comdat align 2 {
entry:
  %this.addr = alloca ptr, align 8
  store ptr %this, ptr %this.addr, align 8
  %this1 = load ptr, ptr %this.addr, align 8
  %m_kind = getelementptr inbounds %class.ast, ptr %this1, i32 0, i32 1
  %bf.load = load i32, ptr %m_kind, align 4
  %bf.clear = and i32 %bf.load, 65535
  ret i32 %bf.clear
}

; Function Attrs: mustprogress uwtable
define linkonce_odr hidden noundef nonnull align 8 dereferenceable(16) ptr @_ZNK6vectorIN13rewriter_core5frameELb0EjE4backEv(ptr noundef nonnull align 8 dereferenceable(8) %this) #4 comdat align 2 {
entry:
  %this.addr = alloca ptr, align 8
  store ptr %this, ptr %this.addr, align 8
  %this1 = load ptr, ptr %this.addr, align 8
  %call = call noundef i32 @_ZNK6vectorIN13rewriter_core5frameELb0EjE4sizeEv(ptr noundef nonnull align 8 dereferenceable(8) %this1)
  %sub = sub i32 %call, 1
  %call2 = call noundef nonnull align 8 dereferenceable(16) ptr @_ZNK6vectorIN13rewriter_core5frameELb0EjEixEj(ptr noundef nonnull align 8 dereferenceable(8) %this1, i32 noundef %sub)
  ret ptr %call2
}

; Function Attrs: mustprogress nounwind uwtable
define linkonce_odr hidden noundef zeroext i1 @_ZNK6vectorIN13rewriter_core5frameELb0EjE5emptyEv(ptr noundef nonnull align 8 dereferenceable(8) %this) #5 comdat align 2 {
entry:
  %this.addr = alloca ptr, align 8
  store ptr %this, ptr %this.addr, align 8
  %this1 = load ptr, ptr %this.addr, align 8
  %m_data = getelementptr inbounds %class.vector.2, ptr %this1, i32 0, i32 0
  %0 = load ptr, ptr %m_data, align 8
  %cmp = icmp eq ptr %0, null
  br i1 %cmp, label %lor.end, label %lor.rhs

lor.rhs:                                          ; preds = %entry
  %m_data2 = getelementptr inbounds %class.vector.2, ptr %this1, i32 0, i32 0
  %1 = load ptr, ptr %m_data2, align 8
  %arrayidx = getelementptr inbounds i32, ptr %1, i64 -1
  %2 = load i32, ptr %arrayidx, align 4
  %cmp3 = icmp eq i32 %2, 0
  br label %lor.end

lor.end:                                          ; preds = %lor.rhs, %entry
  %3 = phi i1 [ true, %entry ], [ %cmp3, %lor.rhs ]
  ret i1 %3
}

; Function Attrs: mustprogress uwtable
define hidden noundef zeroext i1 @_ZNK13rewriter_core21is_child_of_top_frameEP4expr(ptr noundef nonnull align 8 dereferenceable(144) %this, ptr noundef %t) #4 align 2 {
entry:
  %retval = alloca i1, align 1
  %this.addr = alloca ptr, align 8
  %t.addr = alloca ptr, align 8
  %fr = alloca ptr, align 8
  %parent = alloca ptr, align 8
  %num = alloca i32, align 4
  %i = alloca i32, align 4
  %i15 = alloca i32, align 4
  store ptr %this, ptr %this.addr, align 8
  store ptr %t, ptr %t.addr, align 8
  %this1 = load ptr, ptr %this.addr, align 8
  %m_frame_stack = getelementptr inbounds %class.rewriter_core, ptr %this1, i32 0, i32 6
  %call = call noundef zeroext i1 @_ZNK6vectorIN13rewriter_core5frameELb0EjE5emptyEv(ptr noundef nonnull align 8 dereferenceable(8) %m_frame_stack)
  br i1 %call, label %if.then, label %if.end

if.then:                                          ; preds = %entry
  store i1 true, ptr %retval, align 1
  br label %return

if.end:                                           ; preds = %entry
  %m_frame_stack2 = getelementptr inbounds %class.rewriter_core, ptr %this1, i32 0, i32 6
  %call3 = call noundef nonnull align 8 dereferenceable(16) ptr @_ZNK6vectorIN13rewriter_core5frameELb0EjE4backEv(ptr noundef nonnull align 8 dereferenceable(8) %m_frame_stack2)
  store ptr %call3, ptr %fr, align 8
  %0 = load ptr, ptr %fr, align 8
  %m_curr = getelementptr inbounds %"struct.rewriter_core::frame", ptr %0, i32 0, i32 0
  %1 = load ptr, ptr %m_curr, align 8
  store ptr %1, ptr %parent, align 8
  %2 = load ptr, ptr %parent, align 8
  %call4 = call noundef i32 @_ZNK3ast8get_kindEv(ptr noundef nonnull align 4 dereferenceable(16) %2)
  switch i32 %call4, label %sw.default [
    i32 0, label %sw.bb
    i32 2, label %sw.bb12
  ]

sw.bb:                                            ; preds = %if.end
  %3 = load ptr, ptr %parent, align 8
  %call5 = call noundef ptr @_Z6to_appP3ast(ptr noundef %3)
  %call6 = call noundef i32 @_ZNK3app12get_num_argsEv(ptr noundef nonnull align 8 dereferenceable(32) %call5)
  store i32 %call6, ptr %num, align 4
  store i32 0, ptr %i, align 4
  br label %for.cond

for.cond:                                         ; preds = %for.inc, %sw.bb
  %4 = load i32, ptr %i, align 4
  %5 = load i32, ptr %num, align 4
  %cmp = icmp ult i32 %4, %5
  br i1 %cmp, label %for.body, label %for.end

for.body:                                         ; preds = %for.cond
  %6 = load ptr, ptr %parent, align 8
  %call7 = call noundef ptr @_Z6to_appP3ast(ptr noundef %6)
  %7 = load i32, ptr %i, align 4
  %call8 = call noundef ptr @_ZNK3app7get_argEj(ptr noundef nonnull align 8 dereferenceable(32) %call7, i32 noundef %7)
  %8 = load ptr, ptr %t.addr, align 8
  %cmp9 = icmp eq ptr %call8, %8
  br i1 %cmp9, label %if.then10, label %if.end11

if.then10:                                        ; preds = %for.body
  store i1 true, ptr %retval, align 1
  br label %return

if.end11:                                         ; preds = %for.body
  br label %for.inc

for.inc:                                          ; preds = %if.end11
  %9 = load i32, ptr %i, align 4
  %inc = add i32 %9, 1
  store i32 %inc, ptr %i, align 4
  br label %for.cond, !llvm.loop !6

for.end:                                          ; preds = %for.cond
  store i1 false, ptr %retval, align 1
  br label %return

sw.bb12:                                          ; preds = %if.end
  %10 = load ptr, ptr %parent, align 8
  %call13 = call noundef ptr @_Z13to_quantifierP3ast(ptr noundef %10)
  %call14 = call noundef i32 @_ZNK10quantifier16get_num_childrenEv(ptr noundef nonnull align 8 dereferenceable(80) %call13)
  store i32 %call14, ptr %num, align 4
  store i32 0, ptr %i15, align 4
  br label %for.cond16

for.cond16:                                       ; preds = %for.inc24, %sw.bb12
  %11 = load i32, ptr %i15, align 4
  %12 = load i32, ptr %num, align 4
  %cmp17 = icmp ult i32 %11, %12
  br i1 %cmp17, label %for.body18, label %for.end26

for.body18:                                       ; preds = %for.cond16
  %13 = load ptr, ptr %parent, align 8
  %call19 = call noundef ptr @_Z13to_quantifierP3ast(ptr noundef %13)
  %14 = load i32, ptr %i15, align 4
  %call20 = call noundef ptr @_ZNK10quantifier9get_childEj(ptr noundef nonnull align 8 dereferenceable(80) %call19, i32 noundef %14)
  %15 = load ptr, ptr %t.addr, align 8
  %cmp21 = icmp eq ptr %call20, %15
  br i1 %cmp21, label %if.then22, label %if.end23

if.then22:                                        ; preds = %for.body18
  store i1 true, ptr %retval, align 1
  br label %return

if.end23:                                         ; preds = %for.body18
  br label %for.inc24

for.inc24:                                        ; preds = %if.end23
  %16 = load i32, ptr %i15, align 4
  %inc25 = add i32 %16, 1
  store i32 %inc25, ptr %i15, align 4
  br label %for.cond16, !llvm.loop !7

for.end26:                                        ; preds = %for.cond16
  store i1 false, ptr %retval, align 1
  br label %return

sw.default:                                       ; preds = %if.end
  store i1 false, ptr %retval, align 1
  br label %return

return:                                           ; preds = %sw.default, %for.end26, %if.then22, %for.end, %if.then10, %if.then
  %17 = load i1, ptr %retval, align 1
  ret i1 %17
}