; Function Attrs: mustprogress nofree norecurse nosync nounwind willreturn memory(read, inaccessiblemem: none) uwtable
define hidden noundef zeroext i1 @_ZNK13rewriter_core21is_child_of_top_frameEP4expr(ptr nocapture noundef nonnull readonly align 8 dereferenceable(144) %this, ptr noundef readnone %t) local_unnamed_addr #4 align 2 {
entry:
  %m_frame_stack = getelementptr inbounds i8, ptr %this, i64 40
  %0 = load ptr, ptr %m_frame_stack, align 8
  %cmp.i = icmp eq ptr %0, null
  br i1 %cmp.i, label %return, label %_ZNK6vectorIN13rewriter_core5frameELb0EjE5emptyEv.exit

_ZNK6vectorIN13rewriter_core5frameELb0EjE5emptyEv.exit: ; preds = %entry
  %arrayidx.i = getelementptr inbounds i8, ptr %0, i64 -4
  %1 = load i32, ptr %arrayidx.i, align 4
  %cmp3.i = icmp eq i32 %1, 0
  br i1 %cmp3.i, label %return, label %_ZNK6vectorIN13rewriter_core5frameELb0EjE4backEv.exit

_ZNK6vectorIN13rewriter_core5frameELb0EjE4backEv.exit: ; preds = %_ZNK6vectorIN13rewriter_core5frameELb0EjE5emptyEv.exit
  %2 = add i32 %1, -1
  %3 = zext i32 %2 to i64
  %arrayidx.i1.i = getelementptr inbounds %"struct.rewriter_core::frame", ptr %0, i64 %3
  %4 = load ptr, ptr %arrayidx.i1.i, align 8
  %m_kind.i = getelementptr inbounds i8, ptr %4, i64 4
  %bf.load.i = load i32, ptr %m_kind.i, align 4
  %trunc = trunc i32 %bf.load.i to i16
  switch i16 %trunc, label %return [
    i16 0, label %sw.bb
    i16 2, label %sw.bb12
  ]

sw.bb:                                            ; preds = %_ZNK6vectorIN13rewriter_core5frameELb0EjE4backEv.exit
  %m_num_args.i = getelementptr inbounds i8, ptr %4, i64 24
  %5 = load i32, ptr %m_num_args.i, align 8
  %m_args.i = getelementptr inbounds i8, ptr %4, i64 32
  %cmp20.not = icmp eq i32 %5, 0
  br i1 %cmp20.not, label %return, label %for.body.preheader

for.body.preheader:                               ; preds = %sw.bb
  %wide.trip.count31 = zext i32 %5 to i64
  br label %for.body

for.body:                                         ; preds = %for.body, %for.body.preheader
  %indvars.iv28 = phi i64 [ 0, %for.body.preheader ], [ %indvars.iv.next29, %for.body ]
  %arrayidx.i11 = getelementptr inbounds [0 x ptr], ptr %m_args.i, i64 0, i64 %indvars.iv28
  %6 = load ptr, ptr %arrayidx.i11, align 8
  %cmp9 = icmp eq ptr %6, %t
  %indvars.iv.next29 = add nuw nsw i64 %indvars.iv28, 1
  %exitcond32.not = icmp eq i64 %indvars.iv.next29, %wide.trip.count31
  %or.cond = select i1 %cmp9, i1 true, i1 %exitcond32.not
  br i1 %or.cond, label %return, label %for.body, !llvm.loop !7

sw.bb12:                                          ; preds = %_ZNK6vectorIN13rewriter_core5frameELb0EjE4backEv.exit
  %m_num_patterns.i.i = getelementptr inbounds i8, ptr %4, i64 72
  %7 = load i32, ptr %m_num_patterns.i.i, align 8
  %add.i = add i32 %7, 1
  %m_num_no_patterns.i.i = getelementptr inbounds i8, ptr %4, i64 76
  %8 = load i32, ptr %m_num_no_patterns.i.i, align 4
  %add3.i = add i32 %add.i, %8
  %cmp1717.not = icmp eq i32 %add3.i, 0
  br i1 %cmp1717.not, label %return, label %for.body18.lr.ph

for.body18.lr.ph:                                 ; preds = %sw.bb12
  %m_patterns_decls.i.i.i.i.i = getelementptr inbounds i8, ptr %4, i64 80
  %m_num_decls.i.i.i.i = getelementptr inbounds i8, ptr %4, i64 20
  %9 = xor i32 %7, -1
  %m_expr.i.i = getelementptr inbounds i8, ptr %4, i64 24
  %10 = zext i32 %7 to i64
  %wide.trip.count = zext i32 %add3.i to i64
  br label %for.body18

for.body18:                                       ; preds = %_ZNK10quantifier9get_childEj.exit, %for.body18.lr.ph
  %indvars.iv = phi i64 [ 0, %for.body18.lr.ph ], [ %indvars.iv.next, %_ZNK10quantifier9get_childEj.exit ]
  %cmp.i12 = icmp eq i64 %indvars.iv, 0
  br i1 %cmp.i12, label %_ZNK10quantifier9get_childEj.exit, label %if.else.i

if.else.i:                                        ; preds = %for.body18
  %cmp3.not.i = icmp ugt i64 %indvars.iv, %10
  br i1 %cmp3.not.i, label %if.else6.i, label %if.then4.i

if.then4.i:                                       ; preds = %if.else.i
  %11 = load i32, ptr %m_num_decls.i.i.i.i, align 4
  %idx.ext.i.i.i.i = zext i32 %11 to i64
  %add.ptr.i.i.i.i = getelementptr inbounds ptr, ptr %m_patterns_decls.i.i.i.i.i, i64 %idx.ext.i.i.i.i
  %add.ptr.i.i.i = getelementptr inbounds %class.symbol, ptr %add.ptr.i.i.i.i, i64 %idx.ext.i.i.i.i
  %12 = getelementptr ptr, ptr %add.ptr.i.i.i, i64 %indvars.iv
  %arrayidx.i.i14 = getelementptr i8, ptr %12, i64 -8
  br label %_ZNK10quantifier9get_childEj.exit

if.else6.i:                                       ; preds = %if.else.i
  %13 = trunc i64 %indvars.iv to i32
  %sub9.i = add i32 %13, %9
  %14 = load i32, ptr %m_num_decls.i.i.i.i, align 4
  %idx.ext.i.i.i7.i = zext i32 %14 to i64
  %add.ptr.i.i.i8.i = getelementptr inbounds ptr, ptr %m_patterns_decls.i.i.i.i.i, i64 %idx.ext.i.i.i7.i
  %add.ptr.i.i9.i = getelementptr inbounds %class.symbol, ptr %add.ptr.i.i.i8.i, i64 %idx.ext.i.i.i7.i
  %idxprom.i10.i = zext i32 %sub9.i to i64
  %arrayidx.i11.i = getelementptr inbounds ptr, ptr %add.ptr.i.i9.i, i64 %idxprom.i10.i
  br label %_ZNK10quantifier9get_childEj.exit

_ZNK10quantifier9get_childEj.exit:                ; preds = %for.body18, %if.then4.i, %if.else6.i
  %retval.0.in.i = phi ptr [ %arrayidx.i.i14, %if.then4.i ], [ %arrayidx.i11.i, %if.else6.i ], [ %m_expr.i.i, %for.body18 ]
  %retval.0.i = load ptr, ptr %retval.0.in.i, align 8
  %cmp21 = icmp eq ptr %retval.0.i, %t
  %indvars.iv.next = add nuw nsw i64 %indvars.iv, 1
  %exitcond.not = icmp eq i64 %indvars.iv.next, %wide.trip.count
  %or.cond37 = select i1 %cmp21, i1 true, i1 %exitcond.not
  br i1 %or.cond37, label %return, label %for.body18, !llvm.loop !8

return:                                           ; preds = %_ZNK10quantifier9get_childEj.exit, %for.body, %sw.bb12, %sw.bb, %entry, %_ZNK6vectorIN13rewriter_core5frameELb0EjE4backEv.exit, %_ZNK6vectorIN13rewriter_core5frameELb0EjE5emptyEv.exit
  %retval.0 = phi i1 [ true, %_ZNK6vectorIN13rewriter_core5frameELb0EjE5emptyEv.exit ], [ false, %_ZNK6vectorIN13rewriter_core5frameELb0EjE4backEv.exit ], [ true, %entry ], [ false, %sw.bb ], [ false, %sw.bb12 ], [ %cmp9, %for.body ], [ %cmp21, %_ZNK10quantifier9get_childEj.exit ]
  ret i1 %retval.0
}